{
  "main_library": {
    "compatibility_versions": [
      {
        "version": "2.6"
      }
    ],
    "current_versions": [
      {
        "version": "2.6.1"
      }
    ],
    "exported_symbols": [
      {
        "data": {
          "global": [
            "__ZN2sf9IpAddress9BroadcastE",
            "__ZN2sf9IpAddress4NoneE",
            "__ZTSN2sf6SocketE",
            "__ZTIN2sf6SocketE",
            "__ZN2sf9IpAddress9LocalHostE",
            "__ZTVN2sf6PacketE",
            "__ZTVN2sf6SocketE",
            "__ZTSN2sf6PacketE",
            "__ZTIN2sf6PacketE",
            "__ZN2sf9IpAddress3AnyE"
          ]
        },
        "text": {
          "global": [
            "__ZN2sf3Ftp15ListingResponseC1ERKNS0_8ResponseERKNSt3__112basic_stringIcNS5_11char_traitsIcEENS5_9allocatorIcEEEE",
            "__ZN2sf4Http8ResponseC2Ev",
            "__ZN2sf6PacketlsEh",
            "__ZNK2sf6Socket9getHandleEv",
            "__ZN2sf9IpAddressC1Ehhhh",
            "__ZN2sf11TcpListener6listenEtRKNS_9IpAddressE",
            "__ZN2sf3Ftp11DataChannel4sendERNSt3__113basic_istreamIcNS2_11char_traitsIcEEEE",
            "__ZN2sf6PacketlsEf",
            "__ZN2sf11TcpListenerC2Ev",
            "__ZNK2sf4Http8Response19getMinorHttpVersionEv",
            "__ZNK2sf6Socket10isBlockingEv",
            "__ZN2sf14SocketSelectorC1Ev",
            "__ZN2sf3Ftp11DataChannel7receiveERNSt3__113basic_ostreamIcNS2_11char_traitsIcEEEE",
            "__ZN2sf6PacketD2Ev",
            "__ZN2sf4Http8Response11parseFieldsERNSt3__113basic_istreamIcNS2_11char_traitsIcEEEE",
            "__ZN2sf9IpAddressC1ERKNSt3__112basic_stringIcNS1_11char_traitsIcEENS1_9allocatorIcEEEE",
            "__ZN2sf6PacketC2Ev",
            "__ZN2sf4Http7Request9setMethodENS1_6MethodE",
            "__ZN2sf9IpAddress7resolveERKNSt3__112basic_stringIcNS1_11char_traitsIcEENS1_9allocatorIcEEEE",
            "__ZN2sf3Ftp5loginEv",
            "__ZN2sf6Packet9checkSizeEm",
            "__ZN2sf9TcpSocket7receiveEPvmRm",
            "__ZNK2sf9IpAddress8toStringEv",
            "__ZN2sf14SocketSelector6removeERNS_6SocketE",
            "__ZN2sf6PacketrsERi",
            "__ZN2sf4Http7Request6setUriERKNSt3__112basic_stringIcNS2_11char_traitsIcEENS2_9allocatorIcEEEE",
            "__ZN2sf6PacketD1Ev",
            "__ZNK2sf3Ftp8Response9getStatusEv",
            "__ZN2sf9IpAddressC1Ej",
            "__ZN2sf3Ftp11DataChannelC2ERS0_",
            "__ZN2sf6PacketlsEx",
            "__ZN2sf6PacketrsEPw",
            "__ZN2sf3Ftp8ResponseC2ENS1_6StatusERKNSt3__112basic_stringIcNS3_11char_traitsIcEENS3_9allocatorIcEEEE",
            "__ZN2sf6SocketD0Ev",
            "__ZN2sf9TcpSocket4sendEPKvmRm",
            "__ZN2sf3Ftp19getWorkingDirectoryEv",
            "__ZN2sf3Ftp11DataChannel4openENS0_12TransferModeE",
            "__ZN2sf3Ftp19getDirectoryListingERKNSt3__112basic_stringIcNS1_11char_traitsIcEENS1_9allocatorIcEEEE",
            "__ZN2sf6PacketrsERt",
            "__ZNK2sf4Http8Response7getBodyEv",
            "__ZN2sfgeERKNS_9IpAddressES2_",
            "__ZN2sfgtERKNS_9IpAddressES2_",
            "__ZN2sf3Ftp8downloadERKNSt3__112basic_stringIcNS1_11char_traitsIcEENS1_9allocatorIcEEEES9_NS0_12TransferModeE",
            "__ZN2sf9TcpSocket7connectERKNS_9IpAddressEtNS_4TimeE",
            "__ZN2sf9UdpSocket4bindEtRKNS_9IpAddressE",
            "__ZN2sf4Http7Request14setHttpVersionEjj",
            "__ZN2sf3FtpD2Ev",
            "__ZNK2sf4Http8Response9getStatusEv",
            "__ZNK2sf3Ftp17DirectoryResponse12getDirectoryEv",
            "__ZN2sf9TcpSocket10disconnectEv",
            "__ZN2sf11TcpListener5closeEv",
            "__ZN2sf3Ftp11getResponseEv",
            "__ZN2sf9TcpSocket13PendingPacketC2Ev",
            "__ZN2sf3Ftp15createDirectoryERKNSt3__112basic_stringIcNS1_11char_traitsIcEENS1_9allocatorIcEEEE",
            "__ZN2sf6PacketrsERd",
            "__ZN2sf6PacketD0Ev",
            "__ZN2sf3Ftp10disconnectEv",
            "__ZN2sf6PacketC1Ev",
            "__ZNK2sf9TcpSocket13getRemotePortEv",
            "__ZN2sf6PacketrsERNSt3__112basic_stringIcNS1_11char_traitsIcEENS1_9allocatorIcEEEE",
            "__ZNK2sf9UdpSocket12getLocalPortEv",
            "__ZN2sf9TcpSocket13PendingPacketC1Ev",
            "__ZN2sf9UdpSocketC2Ev",
            "__ZN2sf3Ftp10renameFileERKNSt3__112basic_stringIcNS1_11char_traitsIcEENS1_9allocatorIcEEEES9_",
            "__ZN2sf6SocketD2Ev",
            "__ZN2sf3Ftp8ResponseC1ENS1_6StatusERKNSt3__112basic_stringIcNS3_11char_traitsIcEENS3_9allocatorIcEEEE",
            "__ZN2sf9UdpSocket4sendERNS_6PacketERKNS_9IpAddressEt",
            "__ZNK2sf6Packet15getReadPositionEv",
            "__ZN2sf6SocketC2ENS0_4TypeE",
            "__ZN2sf6Socket6createEi",
            "__ZN2sf9TcpSocket4sendERNS_6PacketE",
            "__ZN2sf6Socket5closeEv",
            "__ZN2sf6PacketlsEi",
            "__ZN2sf9TcpSocketC2Ev",
            "__ZN2sf14SocketSelectorD2Ev",
            "__ZN2sf9UdpSocket6unbindEv",
            "__ZN2sf6SocketC1ENS0_4TypeE",
            "__ZN2sf14SocketSelectoraSERKS0_",
            "__ZN2sf9TcpSocket7receiveERNS_6PacketE",
            "__ZN2sf14SocketSelector4waitENS_4TimeE",
            "__ZN2sf6PacketlsEt",
            "__ZNK2sf14SocketSelector7isReadyERNS_6SocketE",
            "__ZN2sf6PacketrsERs",
            "__ZN2sf11TcpListenerC1Ev",
            "__ZN2sf9UdpSocketC1Ev",
            "__ZN2sflsERNSt3__113basic_ostreamIcNS0_11char_traitsIcEEEERKNS_9IpAddressE",
            "__ZN2sfltERKNS_9IpAddressES2_",
            "__ZN2sf3FtpD1Ev",
            "__ZNK2sf6PacketcvMS0_FbmEEv",
            "__ZN2sf9IpAddressC1EPKc",
            "__ZN2sf6PacketrsEPc",
            "__ZN2sf9TcpSocket4sendEPKvm",
            "__ZN2sf6PacketrsERNSt3__112basic_stringIwNS1_11char_traitsIwEENS1_9allocatorIwEEEE",
            "__ZN2sf6Socket11setBlockingEb",
            "__ZNK2sf4Http8Response19getMajorHttpVersionEv",
            "__ZN2sf14SocketSelectorC2ERKS0_",
            "__ZN2sf6Packet9onReceiveEPKvm",
            "__ZN2sf3Ftp15parentDirectoryEv",
            "__ZN2sf9IpAddress15getLocalAddressEv",
            "__ZN2sf3Ftp15changeDirectoryERKNSt3__112basic_stringIcNS1_11char_traitsIcEENS1_9allocatorIcEEEE",
            "__ZN2sf6Packet6appendEPKvm",
            "__ZN2sf9IpAddress16getPublicAddressENS_4TimeE",
            "__ZN2sf14SocketSelector3addERNS_6SocketE",
            "__ZN2sf3Ftp9keepAliveEv",
            "__ZN2sf3Ftp11DataChannelC1ERS0_",
            "__ZN2sf6PacketlsEd",
            "__ZN2sf9UdpSocket7receiveERNS_6PacketERNS_9IpAddressERt",
            "__ZN2sf6PacketrsERb",
            "__ZN2sf6PacketlsEj",
            "__ZN2sf6PacketlsEy",
            "__ZNK2sf4Http7Request7prepareEv",
            "__ZN2sf3Ftp11sendCommandERKNSt3__112basic_stringIcNS1_11char_traitsIcEENS1_9allocatorIcEEEES9_",
            "__ZN2sf6PacketlsEPKw",
            "__ZN2sf6PacketlsEs",
            "__ZN2sf6PacketrsERy",
            "__ZN2sf9UdpSocket7receiveEPvmRmRNS_9IpAddressERt",
            "__ZN2sf6PacketrsERh",
            "__ZNK2sf3Ftp15ListingResponse10getListingEv",
            "__ZN2sf14SocketSelectorC2Ev",
            "__ZNK2sf9IpAddress9toIntegerEv",
            "__ZNK2sf11TcpListener12getLocalPortEv",
            "__ZN2sf6PacketlsEa",
            "__ZN2sf6PacketlsERKNSt3__112basic_stringIwNS1_11char_traitsIwEENS1_9allocatorIwEEEE",
            "__ZN2sf3Ftp17DirectoryResponseC2ERKNS0_8ResponseE",
            "__ZNK2sf9TcpSocket16getRemoteAddressEv",
            "__ZN2sf6PacketlsERKNS_6StringE",
            "__ZN2sf4Http7setHostERKNSt3__112basic_stringIcNS1_11char_traitsIcEENS1_9allocatorIcEEEEt",
            "__ZNK2sf6Packet7getDataEv",
            "__ZN2sf9TcpSocketC1Ev",
            "__ZNK2sf9TcpSocket12getLocalPortEv",
            "__ZN2sf6Socket6createEv",
            "__ZN2sf9UdpSocket4sendEPKvmRKNS_9IpAddressEt",
            "__ZN2sf9IpAddressC1Ev",
            "__ZN2sf4Http11sendRequestERKNS0_7RequestENS_4TimeE",
            "__ZN2sf14SocketSelector5clearEv",
            "__ZN2sf9IpAddressC2ERKNSt3__112basic_stringIcNS1_11char_traitsIcEENS1_9allocatorIcEEEE",
            "__ZN2sf6PacketlsEPKc",
            "__ZN2sf14SocketSelectorD1Ev",
            "__ZNK2sf4Http7Request8hasFieldERKNSt3__112basic_stringIcNS2_11char_traitsIcEENS2_9allocatorIcEEEE",
            "__ZNK2sf6Packet11endOfPacketEv",
            "__ZN2sf4Http7Request7setBodyERKNSt3__112basic_stringIcNS2_11char_traitsIcEENS2_9allocatorIcEEEE",
            "__ZN2sf6PacketlsEb",
            "__ZN2sf4HttpC2ERKNSt3__112basic_stringIcNS1_11char_traitsIcEENS1_9allocatorIcEEEEt",
            "__ZN2sf6PacketrsERj",
            "__ZNK2sf3Ftp8Response10getMessageEv",
            "__ZN2sfneERKNS_9IpAddressES2_",
            "__ZN2sf6PacketrsERa",
            "__ZN2sf6Packet6onSendERm",
            "__ZN2sf3Ftp7connectERKNS_9IpAddressEtNS_4TimeE",
            "__ZN2sf4HttpC2Ev",
            "__ZNK2sf6Packet11getDataSizeEv",
            "__ZN2sf4Http8ResponseC1Ev",
            "__ZN2sf4Http7RequestC1ERKNSt3__112basic_stringIcNS2_11char_traitsIcEENS2_9allocatorIcEEEENS1_6MethodESA_",
            "__ZN2sf3Ftp5loginERKNSt3__112basic_stringIcNS1_11char_traitsIcEENS1_9allocatorIcEEEES9_",
            "__ZN2sf14SocketSelectorC1ERKS0_",
            "__ZN2sf9IpAddressC2EPKc",
            "__ZN2sfeqERKNS_9IpAddressES2_",
            "__ZN2sf4Http7Request8setFieldERKNSt3__112basic_stringIcNS2_11char_traitsIcEENS2_9allocatorIcEEEESA_",
            "__ZN2sf6Packet5clearEv",
            "__ZN2sf11TcpListener6acceptERNS_9TcpSocketE",
            "__ZN2sf3Ftp15ListingResponseC2ERKNS0_8ResponseERKNSt3__112basic_stringIcNS5_11char_traitsIcEENS5_9allocatorIcEEEE",
            "__ZN2sf3Ftp10deleteFileERKNSt3__112basic_stringIcNS1_11char_traitsIcEENS1_9allocatorIcEEEE",
            "__ZNK2sf3Ftp8Response4isOkEv",
            "__ZN2sf3Ftp17DirectoryResponseC1ERKNS0_8ResponseE",
            "__ZN2sf4Http8Response5parseERKNSt3__112basic_stringIcNS2_11char_traitsIcEENS2_9allocatorIcEEEE",
            "__ZN2sfrsERNSt3__113basic_istreamIcNS0_11char_traitsIcEEEERNS_9IpAddressE",
            "__ZN2sf6PacketrsERx",
            "__ZN2sf6PacketlsERKNSt3__112basic_stringIcNS1_11char_traitsIcEENS1_9allocatorIcEEEE",
            "__ZN2sf4HttpC1ERKNSt3__112basic_stringIcNS1_11char_traitsIcEENS1_9allocatorIcEEEEt",
            "__ZN2sf6SocketD1Ev",
            "__ZNK2sf4Http8Response8getFieldERKNSt3__112basic_stringIcNS2_11char_traitsIcEENS2_9allocatorIcEEEE",
            "__ZN2sf9IpAddressC2Ehhhh",
            "__ZN2sf3Ftp6uploadERKNSt3__112basic_stringIcNS1_11char_traitsIcEENS1_9allocatorIcEEEES9_NS0_12TransferModeEb",
            "__ZN2sfleERKNS_9IpAddressES2_",
            "__ZN2sf9IpAddressC2Ej",
            "__ZN2sf3Ftp15deleteDirectoryERKNSt3__112basic_stringIcNS1_11char_traitsIcEENS1_9allocatorIcEEEE",
            "__ZN2sf6PacketrsERNS_6StringE",
            "__ZN2sf4HttpC1Ev",
            "__ZN2sf4Http7RequestC2ERKNSt3__112basic_stringIcNS2_11char_traitsIcEENS2_9allocatorIcEEEENS1_6MethodESA_",
            "__ZN2sf9IpAddressC2Ev",
            "__ZN2sf6PacketrsERf"
          ],
          "weak": [
            "__ZN2sf9TcpSocket13PendingPacketaSERKS1_",
            "__ZN2sf3Ftp8ResponseaSERKS1_"
          ]
        }
      }
    ],
    "flags": [
      {
        "attributes": [
          "not_app_extension_safe"
        ]
      }
    ],
    "install_names": [
      {
        "name": "@rpath/libsfml-network-d.2.6.dylib"
      }
    ],
    "target_info": [
      {
        "min_deployment": "14",
        "target": "arm64-macos"
      }
    ]
  },
  "tapi_tbd_version": 5
}
